target datalayout = "e-m:e-p270:32:32-p271:32:32-p272:64:64-i64:64-i128:128-f80:128-n8:16:32:64-S128"
target triple = "x86_64-pc-linux-gnu"

%struct.mbedtls_net_context = type { i32 }

; Function Attrs: nounwind uwtable
define hidden void @mbedtls_net_free(ptr noundef %0) #0 {
  %2 = alloca ptr, align 8
  store ptr %0, ptr %2, align 8, !tbaa !3
  %3 = load ptr, ptr %2, align 8, !tbaa !3
  %4 = icmp eq ptr %3, null
  br i1 %4, label %10, label %5

5:                                                ; preds = %1
  %6 = load ptr, ptr %2, align 8, !tbaa !3
  %7 = getelementptr inbounds nuw %struct.mbedtls_net_context, ptr %6, i32 0, i32 0
  %8 = load i32, ptr %7, align 4, !tbaa !8
  %9 = icmp eq i32 %8, -1
  br i1 %9, label %10, label %11

10:                                               ; preds = %5, %1
  br label %22

11:                                               ; preds = %5
  %12 = load ptr, ptr %2, align 8, !tbaa !3
  %13 = getelementptr inbounds nuw %struct.mbedtls_net_context, ptr %12, i32 0, i32 0
  %14 = load i32, ptr %13, align 4, !tbaa !8
  %15 = call i32 @shutdown(i32 noundef %14, i32 noundef 2) #7
  %16 = load ptr, ptr %2, align 8, !tbaa !3
  %17 = getelementptr inbounds nuw %struct.mbedtls_net_context, ptr %16, i32 0, i32 0
  %18 = load i32, ptr %17, align 4, !tbaa !8
  %19 = call i32 @close(i32 noundef %18)
  %20 = load ptr, ptr %2, align 8, !tbaa !3
  %21 = getelementptr inbounds nuw %struct.mbedtls_net_context, ptr %20, i32 0, i32 0
  store i32 -1, ptr %21, align 4, !tbaa !8
  br label %22

22:                                               ; preds = %11, %10
  ret void
}