; Function Attrs: nounwind uwtable
define hidden void @mbedtls_net_free(ptr noundef %0) local_unnamed_addr #1 {
  %2 = icmp eq ptr %0, null
  br i1 %2, label %10, label %3

3:                                                ; preds = %1
  %4 = load i32, ptr %0, align 4, !tbaa !3
  %5 = icmp eq i32 %4, -1
  br i1 %5, label %10, label %6

6:                                                ; preds = %3
  %7 = tail call i32 @shutdown(i32 noundef %4, i32 noundef 2) #9
  %8 = load i32, ptr %0, align 4, !tbaa !3
  %9 = tail call i32 @close(i32 noundef %8) #9
  store i32 -1, ptr %0, align 4, !tbaa !3
  br label %10

10:                                               ; preds = %1, %3, %6
  ret void
}